target datalayout = "e-m:e-p270:32:32-p271:32:32-p272:64:64-i64:64-i128:128-f80:128-n8:16:32:64-S128"
target triple = "x86_64-pc-linux-gnu"

%struct.AVRational = type { i32, i32 }
%struct.AVStream = type { ptr, i32, i32, ptr, ptr, %struct.AVRational, i64, i64, i64, i32, i32, %struct.AVRational, ptr, %struct.AVRational, %struct.AVPacket, i32, %struct.AVRational, i32 }
%struct.AVPacket = type { ptr, i64, i64, ptr, i32, i32, i32, ptr, i32, i64, i64, ptr, ptr, %struct.AVRational }
%struct.AVCodecParameters = type { i32, i32, i32, ptr, i32, ptr, i32, i32, i64, i32, i32, i32, i32, i32, i32, %struct.AVRational, %struct.AVRational, i32, i32, i32, i32, i32, i32, i32, %struct.AVChannelLayout, i32, i32, i32, i32, i32, i32 }
%struct.AVChannelLayout = type { i32, i32, %union.anon.3, ptr }
%union.anon.3 = type { i64 }
%struct.AVFrame = type { [8 x ptr], [8 x i32], ptr, i32, i32, i32, i32, i32, %struct.AVRational, i64, i64, %struct.AVRational, i32, ptr, i32, i32, [8 x ptr], ptr, i32, ptr, i32, i32, i32, i32, i32, i32, i32, i64, ptr, i32, ptr, ptr, i64, i64, i64, i64, ptr, %struct.AVChannelLayout, i64 }

@__const.av_guess_sample_aspect_ratio.undef = private unnamed_addr constant %struct.AVRational { i32 0, i32 1 }, align 4

; Function Attrs: nounwind uwtable
define i64 @av_guess_sample_aspect_ratio(ptr noundef %0, ptr noundef %1, ptr noundef %2) #0 {
  %4 = alloca %struct.AVRational, align 4
  %5 = alloca ptr, align 8
  %6 = alloca ptr, align 8
  %7 = alloca ptr, align 8
  %8 = alloca %struct.AVRational, align 4
  %9 = alloca %struct.AVRational, align 4
  %10 = alloca %struct.AVRational, align 4
  %11 = alloca %struct.AVRational, align 4
  %12 = alloca i32, align 4
  store ptr %0, ptr %5, align 8, !tbaa !47
  store ptr %1, ptr %6, align 8, !tbaa !10
  store ptr %2, ptr %7, align 8, !tbaa !157
  call void @llvm.lifetime.start.p0(i64 8, ptr %8) #11
  call void @llvm.memcpy.p0.p0.i64(ptr align 4 %8, ptr align 4 @__const.av_guess_sample_aspect_ratio.undef, i64 8, i1 false)
  call void @llvm.lifetime.start.p0(i64 8, ptr %9) #11
  %13 = load ptr, ptr %6, align 8, !tbaa !10
  %14 = icmp ne ptr %13, null
  br i1 %14, label %15, label %18

15:                                               ; preds = %3
  %16 = load ptr, ptr %6, align 8, !tbaa !10
  %17 = getelementptr inbounds nuw %struct.AVStream, ptr %16, i32 0, i32 11
  call void @llvm.memcpy.p0.p0.i64(ptr align 4 %9, ptr align 8 %17, i64 8, i1 false), !tbaa.struct !90
  br label %19

18:                                               ; preds = %3
  call void @llvm.memcpy.p0.p0.i64(ptr align 4 %9, ptr align 4 %8, i64 8, i1 false), !tbaa.struct !90
  br label %19

19:                                               ; preds = %18, %15
  call void @llvm.lifetime.start.p0(i64 8, ptr %10) #11
  %20 = load ptr, ptr %6, align 8, !tbaa !10
  %21 = icmp ne ptr %20, null
  br i1 %21, label %22, label %32

22:                                               ; preds = %19
  %23 = load ptr, ptr %6, align 8, !tbaa !10
  %24 = getelementptr inbounds nuw %struct.AVStream, ptr %23, i32 0, i32 3
  %25 = load ptr, ptr %24, align 8, !tbaa !99
  %26 = icmp ne ptr %25, null
  br i1 %26, label %27, label %32

27:                                               ; preds = %22
  %28 = load ptr, ptr %6, align 8, !tbaa !10
  %29 = getelementptr inbounds nuw %struct.AVStream, ptr %28, i32 0, i32 3
  %30 = load ptr, ptr %29, align 8, !tbaa !99
  %31 = getelementptr inbounds nuw %struct.AVCodecParameters, ptr %30, i32 0, i32 15
  call void @llvm.memcpy.p0.p0.i64(ptr align 4 %10, ptr align 8 %31, i64 8, i1 false), !tbaa.struct !90
  br label %33

32:                                               ; preds = %22, %19
  call void @llvm.memcpy.p0.p0.i64(ptr align 4 %10, ptr align 4 %8, i64 8, i1 false), !tbaa.struct !90
  br label %33

33:                                               ; preds = %32, %27
  call void @llvm.lifetime.start.p0(i64 8, ptr %11) #11
  %34 = load ptr, ptr %7, align 8, !tbaa !157
  %35 = icmp ne ptr %34, null
  br i1 %35, label %36, label %39

36:                                               ; preds = %33
  %37 = load ptr, ptr %7, align 8, !tbaa !157
  %38 = getelementptr inbounds nuw %struct.AVFrame, ptr %37, i32 0, i32 8
  call void @llvm.memcpy.p0.p0.i64(ptr align 4 %11, ptr align 4 %38, i64 8, i1 false), !tbaa.struct !90
  br label %40

39:                                               ; preds = %33
  call void @llvm.memcpy.p0.p0.i64(ptr align 4 %11, ptr align 4 %10, i64 8, i1 false), !tbaa.struct !90
  br label %40

40:                                               ; preds = %39, %36
  %41 = getelementptr inbounds nuw %struct.AVRational, ptr %9, i32 0, i32 0
  %42 = getelementptr inbounds nuw %struct.AVRational, ptr %9, i32 0, i32 1
  %43 = getelementptr inbounds nuw %struct.AVRational, ptr %9, i32 0, i32 0
  %44 = load i32, ptr %43, align 4, !tbaa !159
  %45 = sext i32 %44 to i64
  %46 = getelementptr inbounds nuw %struct.AVRational, ptr %9, i32 0, i32 1
  %47 = load i32, ptr %46, align 4, !tbaa !160
  %48 = sext i32 %47 to i64
  %49 = call i32 @av_reduce(ptr noundef %41, ptr noundef %42, i64 noundef %45, i64 noundef %48, i64 noundef 2147483647)
  %50 = getelementptr inbounds nuw %struct.AVRational, ptr %9, i32 0, i32 0
  %51 = load i32, ptr %50, align 4, !tbaa !159
  %52 = icmp sle i32 %51, 0
  br i1 %52, label %57, label %53

53:                                               ; preds = %40
  %54 = getelementptr inbounds nuw %struct.AVRational, ptr %9, i32 0, i32 1
  %55 = load i32, ptr %54, align 4, !tbaa !160
  %56 = icmp sle i32 %55, 0
  br i1 %56, label %57, label %58

57:                                               ; preds = %53, %40
  call void @llvm.memcpy.p0.p0.i64(ptr align 4 %9, ptr align 4 %8, i64 8, i1 false), !tbaa.struct !90
  br label %58

58:                                               ; preds = %57, %53
  %59 = getelementptr inbounds nuw %struct.AVRational, ptr %11, i32 0, i32 0
  %60 = getelementptr inbounds nuw %struct.AVRational, ptr %11, i32 0, i32 1
  %61 = getelementptr inbounds nuw %struct.AVRational, ptr %11, i32 0, i32 0
  %62 = load i32, ptr %61, align 4, !tbaa !159
  %63 = sext i32 %62 to i64
  %64 = getelementptr inbounds nuw %struct.AVRational, ptr %11, i32 0, i32 1
  %65 = load i32, ptr %64, align 4, !tbaa !160
  %66 = sext i32 %65 to i64
  %67 = call i32 @av_reduce(ptr noundef %59, ptr noundef %60, i64 noundef %63, i64 noundef %66, i64 noundef 2147483647)
  %68 = getelementptr inbounds nuw %struct.AVRational, ptr %11, i32 0, i32 0
  %69 = load i32, ptr %68, align 4, !tbaa !159
  %70 = icmp sle i32 %69, 0
  br i1 %70, label %75, label %71

71:                                               ; preds = %58
  %72 = getelementptr inbounds nuw %struct.AVRational, ptr %11, i32 0, i32 1
  %73 = load i32, ptr %72, align 4, !tbaa !160
  %74 = icmp sle i32 %73, 0
  br i1 %74, label %75, label %76

75:                                               ; preds = %71, %58
  call void @llvm.memcpy.p0.p0.i64(ptr align 4 %11, ptr align 4 %8, i64 8, i1 false), !tbaa.struct !90
  br label %76

76:                                               ; preds = %75, %71
  %77 = getelementptr inbounds nuw %struct.AVRational, ptr %9, i32 0, i32 0
  %78 = load i32, ptr %77, align 4, !tbaa !159
  %79 = icmp ne i32 %78, 0
  br i1 %79, label %80, label %81

80:                                               ; preds = %76
  call void @llvm.memcpy.p0.p0.i64(ptr align 4 %4, ptr align 4 %9, i64 8, i1 false), !tbaa.struct !90
  store i32 1, ptr %12, align 4
  br label %82

81:                                               ; preds = %76
  call void @llvm.memcpy.p0.p0.i64(ptr align 4 %4, ptr align 4 %11, i64 8, i1 false), !tbaa.struct !90
  store i32 1, ptr %12, align 4
  br label %82

82:                                               ; preds = %81, %80
  call void @llvm.lifetime.end.p0(i64 8, ptr %11) #11
  call void @llvm.lifetime.end.p0(i64 8, ptr %10) #11
  call void @llvm.lifetime.end.p0(i64 8, ptr %9) #11
  call void @llvm.lifetime.end.p0(i64 8, ptr %8) #11
  %83 = load i64, ptr %4, align 4
  ret i64 %83
}