; Function Attrs: nounwind uwtable
define i64 @av_guess_sample_aspect_ratio(ptr noundef readnone captures(none) %0, ptr noundef readonly captures(address_is_null) %1, ptr noundef readonly captures(address_is_null) %2) local_unnamed_addr #0 {
  %4 = alloca %struct.AVRational, align 8
  %5 = alloca %struct.AVRational, align 8
  %6 = alloca %struct.AVRational, align 8
  call void @llvm.lifetime.start.p0(i64 8, ptr nonnull %4) #13
  %.not = icmp eq ptr %1, null
  br i1 %.not, label %.critedge, label %7

7:                                                ; preds = %3
  %8 = getelementptr inbounds nuw i8, ptr %1, i64 72
  %9 = load i64, ptr %8, align 8
  store i64 %9, ptr %4, align 8
  call void @llvm.lifetime.start.p0(i64 8, ptr nonnull %5)
  %10 = getelementptr inbounds nuw i8, ptr %1, i64 16
  %11 = load ptr, ptr %10, align 8, !tbaa !87
  %.not15 = icmp eq ptr %11, null
  %12 = lshr i64 %9, 32
  br i1 %.not15, label %16, label %13

13:                                               ; preds = %7
  %14 = getelementptr inbounds nuw i8, ptr %11, i64 80
  %15 = load i64, ptr %14, align 8
  br label %16

.critedge:                                        ; preds = %3
  store i64 4294967296, ptr %4, align 8
  call void @llvm.lifetime.start.p0(i64 8, ptr nonnull %5)
  br label %16

16:                                               ; preds = %7, %.critedge, %13
  %17 = phi i64 [ %12, %13 ], [ 1, %.critedge ], [ %12, %7 ]
  %18 = phi i64 [ %9, %13 ], [ 0, %.critedge ], [ %9, %7 ]
  %storemerge16 = phi i64 [ %15, %13 ], [ 4294967296, %.critedge ], [ 4294967296, %7 ]
  store i64 %storemerge16, ptr %5, align 8
  call void @llvm.lifetime.start.p0(i64 8, ptr nonnull %6) #13
  %.not17 = icmp eq ptr %2, null
  %19 = getelementptr inbounds nuw i8, ptr %2, i64 124
  %storemerge18.in = select i1 %.not17, ptr %5, ptr %19
  %storemerge18 = load i64, ptr %storemerge18.in, align 4
  store i64 %storemerge18, ptr %6, align 8
  %20 = getelementptr inbounds nuw i8, ptr %4, i64 4
  %sext = shl i64 %18, 32
  %21 = ashr exact i64 %sext, 32
  %sext22 = shl nuw i64 %17, 32
  %22 = ashr exact i64 %sext22, 32
  %23 = call i32 @av_reduce(ptr noundef nonnull %4, ptr noundef nonnull %20, i64 noundef %21, i64 noundef %22, i64 noundef 2147483647) #13
  %24 = load i32, ptr %4, align 8, !tbaa !135
  %25 = icmp slt i32 %24, 1
  %26 = load i32, ptr %20, align 4
  %27 = icmp slt i32 %26, 1
  %or.cond = select i1 %25, i1 true, i1 %27
  br i1 %or.cond, label %28, label %29

28:                                               ; preds = %16
  store i64 4294967296, ptr %4, align 8
  br label %29

29:                                               ; preds = %16, %28
  %30 = getelementptr inbounds nuw i8, ptr %6, i64 4
  %sext23 = shl i64 %storemerge18, 32
  %31 = ashr exact i64 %sext23, 32
  %32 = ashr i64 %storemerge18, 32
  %33 = call i32 @av_reduce(ptr noundef nonnull %6, ptr noundef nonnull %30, i64 noundef %31, i64 noundef %32, i64 noundef 2147483647) #13
  %34 = load i32, ptr %6, align 8, !tbaa !135
  %35 = icmp slt i32 %34, 1
  %36 = load i32, ptr %30, align 4
  %37 = icmp slt i32 %36, 1
  %or.cond5 = select i1 %35, i1 true, i1 %37
  %.val.pre = load i64, ptr %6, align 8
  %.val = select i1 %or.cond5, i64 4294967296, i64 %.val.pre
  %38 = load i32, ptr %4, align 8, !tbaa !135
  %.not19 = icmp eq i32 %38, 0
  %.val20 = load i64, ptr %4, align 8
  %.sroa.0.0 = select i1 %.not19, i64 %.val, i64 %.val20
  call void @llvm.lifetime.end.p0(i64 8, ptr nonnull %6) #13
  call void @llvm.lifetime.end.p0(i64 8, ptr nonnull %5)
  call void @llvm.lifetime.end.p0(i64 8, ptr nonnull %4) #13
  ret i64 %.sroa.0.0
}